; Function Attrs: nounwind uwtable
define internal i32 @dissect_p45_header_with_error_and_list(ptr noundef %0, ptr noundef %1, ptr noundef %2, ptr readnone captures(none) %3) #0 {
  %5 = load i32, ptr @ett_nfapi_p4_p5_message_header, align 4
  %6 = tail call ptr @proto_tree_add_subtree(ptr noundef %2, ptr noundef %0, i32 noundef 0, i32 noundef 8, i32 noundef %5, ptr noundef null, ptr noundef nonnull @.str.2652) #7
  %7 = load i32, ptr @hf_nfapi_p4_p5_message_header_phy_id, align 4
  %8 = tail call ptr @proto_tree_add_item(ptr noundef %6, i32 noundef %7, ptr noundef %0, i32 noundef 0, i32 noundef 2, i32 noundef 0) #7
  %9 = load i32, ptr @hf_nfapi_p4_p5_message_header_message_id, align 4
  %10 = tail call ptr @proto_tree_add_item(ptr noundef %6, i32 noundef %9, ptr noundef %0, i32 noundef 2, i32 noundef 2, i32 noundef 0) #7
  %11 = load i32, ptr @hf_nfapi_p4_p5_message_header_message_length, align 4
  %12 = tail call ptr @proto_tree_add_item(ptr noundef %6, i32 noundef %11, ptr noundef %0, i32 noundef 4, i32 noundef 2, i32 noundef 0) #7
  %13 = load i32, ptr @hf_nfapi_p4_p5_message_header_spare, align 4
  %14 = tail call ptr @proto_tree_add_item(ptr noundef %6, i32 noundef %13, ptr noundef %0, i32 noundef 6, i32 noundef 2, i32 noundef 0) #7
  %15 = load i32, ptr @hf_nfapi_error_code, align 4
  %16 = tail call ptr @proto_tree_add_item(ptr noundef %2, i32 noundef %15, ptr noundef %0, i32 noundef 8, i32 noundef 4, i32 noundef 0) #7
  %17 = getelementptr inbounds nuw i8, ptr %1, i64 408
  %18 = load ptr, ptr %17, align 8
  %19 = tail call ptr @ptvcursor_new(ptr noundef %18, ptr noundef %2, ptr noundef %0, i32 noundef 12) #7
  %20 = tail call i32 @tvb_reported_length(ptr noundef %0) #7
  tail call fastcc void @dissect_tlv_list(ptr noundef %19, ptr noundef %1, i32 noundef %20)
  tail call void @ptvcursor_free(ptr noundef %19) #7
  %21 = tail call i32 @tvb_captured_length(ptr noundef %0) #7
  ret i32 %21
}